target datalayout = "e-m:e-p270:32:32-p271:32:32-p272:64:64-i64:64-i128:128-f80:128-n8:16:32:64-S128"
target triple = "x86_64-pc-linux-gnu"

%struct.Ssw_Man_t_ = type { ptr, i32, ptr, ptr, ptr, ptr, i32, ptr, ptr, ptr, i32, i32, i32, i32, i32, i32, i32, i32, i32, i32, i32, ptr, i32, ptr, i32, i32, i32, i32, ptr, ptr, ptr, i32, ptr, i32, i32, ptr, ptr, ptr, i32, ptr, i32, i32, i32, i32, i32, i32, i32, i32, i32, i32, i32, i32, i32, i32, i32, i32, i32, i32, i32, i32, i32, i32, i64, i64, i64, i64, i64, i64, i64, i64, i64, i64 }
%struct.Vec_Ptr_t_ = type { i32, i32, ptr }
%struct.timespec = type { i64, i64 }

; Function Attrs: inlinehint nounwind uwtable
define internal ptr @Vec_PtrEntry(ptr noundef %0, i32 noundef %1) #2 {
  %3 = alloca ptr, align 8
  %4 = alloca i32, align 4
  store ptr %0, ptr %3, align 8, !tbaa !39
  store i32 %1, ptr %4, align 4, !tbaa !21
  %5 = load ptr, ptr %3, align 8, !tbaa !39
  %6 = getelementptr inbounds nuw %struct.Vec_Ptr_t_, ptr %5, i32 0, i32 2
  %7 = load ptr, ptr %6, align 8, !tbaa !40
  %8 = load i32, ptr %4, align 4, !tbaa !21
  %9 = sext i32 %8 to i64
  %10 = getelementptr inbounds ptr, ptr %7, i64 %9
  %11 = load ptr, ptr %10, align 8, !tbaa !42
  ret ptr %11
}

; Function Attrs: inlinehint nounwind uwtable
define internal void @Vec_PtrCleanSimInfo(ptr noundef %0, i32 noundef %1, i32 noundef %2) #2 {
  %4 = alloca ptr, align 8
  %5 = alloca i32, align 4
  %6 = alloca i32, align 4
  %7 = alloca i32, align 4
  store ptr %0, ptr %4, align 8, !tbaa !39
  store i32 %1, ptr %5, align 4, !tbaa !21
  store i32 %2, ptr %6, align 4, !tbaa !21
  call void @llvm.lifetime.start.p0(i64 4, ptr %7) #8
  store i32 0, ptr %7, align 4, !tbaa !21
  br label %8

8:                                                ; preds = %27, %3
  %9 = load i32, ptr %7, align 4, !tbaa !21
  %10 = load ptr, ptr %4, align 8, !tbaa !39
  %11 = getelementptr inbounds nuw %struct.Vec_Ptr_t_, ptr %10, i32 0, i32 1
  %12 = load i32, ptr %11, align 4, !tbaa !45
  %13 = icmp slt i32 %9, %12
  br i1 %13, label %14, label %30

14:                                               ; preds = %8
  %15 = load ptr, ptr %4, align 8, !tbaa !39
  %16 = load i32, ptr %7, align 4, !tbaa !21
  %17 = call ptr @Vec_PtrEntry(ptr noundef %15, i32 noundef %16)
  %18 = load i32, ptr %5, align 4, !tbaa !21
  %19 = mul nsw i32 4, %18
  %20 = sext i32 %19 to i64
  %21 = getelementptr inbounds i8, ptr %17, i64 %20
  %22 = load i32, ptr %6, align 4, !tbaa !21
  %23 = load i32, ptr %5, align 4, !tbaa !21
  %24 = sub nsw i32 %22, %23
  %25 = mul nsw i32 4, %24
  %26 = sext i32 %25 to i64
  call void @llvm.memset.p0.i64(ptr align 1 %21, i8 0, i64 %26, i1 false)
  br label %27

27:                                               ; preds = %14
  %28 = load i32, ptr %7, align 4, !tbaa !21
  %29 = add nsw i32 %28, 1
  store i32 %29, ptr %7, align 4, !tbaa !21
  br label %8, !llvm.loop !98

30:                                               ; preds = %8
  call void @llvm.lifetime.end.p0(i64 4, ptr %7) #8
  ret void
}

; Function Attrs: inlinehint nounwind uwtable
define internal i64 @Abc_Clock() #2 {
  %1 = alloca i64, align 8
  %2 = alloca %struct.timespec, align 8
  %3 = alloca i32, align 4
  %4 = alloca i64, align 8
  call void @llvm.lifetime.start.p0(i64 16, ptr %2) #8
  %5 = call i32 @clock_gettime(i32 noundef 1, ptr noundef %2) #8
  %6 = icmp slt i32 %5, 0
  br i1 %6, label %7, label %8

7:                                                ; preds = %0
  store i64 -1, ptr %1, align 8
  store i32 1, ptr %3, align 4
  br label %19

8:                                                ; preds = %0
  call void @llvm.lifetime.start.p0(i64 8, ptr %4) #8
  %9 = getelementptr inbounds nuw %struct.timespec, ptr %2, i32 0, i32 0
  %10 = load i64, ptr %9, align 8, !tbaa !135
  %11 = mul nsw i64 %10, 1000000
  store i64 %11, ptr %4, align 8, !tbaa !93
  %12 = getelementptr inbounds nuw %struct.timespec, ptr %2, i32 0, i32 1
  %13 = load i64, ptr %12, align 8, !tbaa !137
  %14 = mul nsw i64 %13, 1000000
  %15 = sdiv i64 %14, 1000000000
  %16 = load i64, ptr %4, align 8, !tbaa !93
  %17 = add nsw i64 %16, %15
  store i64 %17, ptr %4, align 8, !tbaa !93
  %18 = load i64, ptr %4, align 8, !tbaa !93
  store i64 %18, ptr %1, align 8
  store i32 1, ptr %3, align 4
  call void @llvm.lifetime.end.p0(i64 8, ptr %4) #8
  br label %19

19:                                               ; preds = %8, %7
  call void @llvm.lifetime.end.p0(i64 16, ptr %2) #8
  %20 = load i64, ptr %1, align 8
  ret i64 %20
}

; Function Attrs: nounwind uwtable
define i32 @Ssw_ManSweepResimulateDyn(ptr noundef %0, i32 noundef %1) #0 {
  %3 = alloca ptr, align 8
  %4 = alloca i32, align 4
  %5 = alloca i32, align 4
  %6 = alloca i32, align 4
  %7 = alloca i64, align 8
  store ptr %0, ptr %3, align 8, !tbaa !3
  store i32 %1, ptr %4, align 4, !tbaa !21
  call void @llvm.lifetime.start.p0(i64 4, ptr %5) #8
  call void @llvm.lifetime.start.p0(i64 4, ptr %6) #8
  call void @llvm.lifetime.start.p0(i64 8, ptr %7) #8
  %8 = call i64 @Abc_Clock()
  store i64 %8, ptr %7, align 8, !tbaa !93
  %9 = load ptr, ptr %3, align 8, !tbaa !3
  call void @Ssw_ManSweepTransferDyn(ptr noundef %9)
  %10 = load ptr, ptr %3, align 8, !tbaa !3
  %11 = getelementptr inbounds nuw %struct.Ssw_Man_t_, ptr %10, i32 0, i32 32
  %12 = load ptr, ptr %11, align 8, !tbaa !85
  call void @Ssw_SmlSimulateOne(ptr noundef %12)
  %13 = load ptr, ptr %3, align 8, !tbaa !3
  %14 = getelementptr inbounds nuw %struct.Ssw_Man_t_, ptr %13, i32 0, i32 5
  %15 = load ptr, ptr %14, align 8, !tbaa !94
  %16 = call i32 @Ssw_ClassesRefineConst1(ptr noundef %15, i32 noundef 1)
  store i32 %16, ptr %5, align 4, !tbaa !21
  %17 = load ptr, ptr %3, align 8, !tbaa !3
  %18 = getelementptr inbounds nuw %struct.Ssw_Man_t_, ptr %17, i32 0, i32 5
  %19 = load ptr, ptr %18, align 8, !tbaa !94
  %20 = call i32 @Ssw_ClassesRefine(ptr noundef %19, i32 noundef 1)
  store i32 %20, ptr %6, align 4, !tbaa !21
  %21 = load ptr, ptr %3, align 8, !tbaa !3
  %22 = getelementptr inbounds nuw %struct.Ssw_Man_t_, ptr %21, i32 0, i32 9
  %23 = load ptr, ptr %22, align 8, !tbaa !86
  call void @Vec_PtrCleanSimInfo(ptr noundef %23, i32 noundef 0, i32 noundef 1)
  %24 = load ptr, ptr %3, align 8, !tbaa !3
  %25 = getelementptr inbounds nuw %struct.Ssw_Man_t_, ptr %24, i32 0, i32 10
  store i32 0, ptr %25, align 8, !tbaa !95
  %26 = load ptr, ptr %3, align 8, !tbaa !3
  %27 = getelementptr inbounds nuw %struct.Ssw_Man_t_, ptr %26, i32 0, i32 11
  %28 = load i32, ptr %27, align 4, !tbaa !96
  %29 = add nsw i32 %28, 1
  store i32 %29, ptr %27, align 4, !tbaa !96
  %30 = call i64 @Abc_Clock()
  %31 = load i64, ptr %7, align 8, !tbaa !93
  %32 = sub nsw i64 %30, %31
  %33 = load ptr, ptr %3, align 8, !tbaa !3
  %34 = getelementptr inbounds nuw %struct.Ssw_Man_t_, ptr %33, i32 0, i32 65
  %35 = load i64, ptr %34, align 8, !tbaa !97
  %36 = add nsw i64 %35, %32
  store i64 %36, ptr %34, align 8, !tbaa !97
  %37 = load i32, ptr %5, align 4, !tbaa !21
  %38 = icmp sgt i32 %37, 0
  br i1 %38, label %42, label %39

39:                                               ; preds = %2
  %40 = load i32, ptr %6, align 4, !tbaa !21
  %41 = icmp sgt i32 %40, 0
  br label %42

42:                                               ; preds = %39, %2
  %43 = phi i1 [ true, %2 ], [ %41, %39 ]
  %44 = zext i1 %43 to i32
  call void @llvm.lifetime.end.p0(i64 8, ptr %7) #8
  call void @llvm.lifetime.end.p0(i64 4, ptr %6) #8
  call void @llvm.lifetime.end.p0(i64 4, ptr %5) #8
  ret i32 %44
}