; Function Attrs: nounwind uwtable
define range(i32 0, 2) i32 @Ssw_ManSweepResimulateDyn(ptr noundef captures(none) %0, i32 %1) local_unnamed_addr #2 {
  %3 = alloca %struct.timespec, align 8
  %4 = alloca %struct.timespec, align 8
  call void @llvm.lifetime.start.p0(i64 16, ptr nonnull %4) #10
  %5 = call i32 @clock_gettime(i32 noundef 1, ptr noundef nonnull %4) #10
  %6 = icmp slt i32 %5, 0
  br i1 %6, label %Abc_Clock.exit, label %7

7:                                                ; preds = %2
  %8 = load i64, ptr %4, align 8, !tbaa !88
  %.neg12 = mul i64 %8, -1000000
  %9 = getelementptr inbounds nuw i8, ptr %4, i64 8
  %10 = load i64, ptr %9, align 8, !tbaa !90
  %.neg = sdiv i64 %10, -1000
  %.neg13 = add i64 %.neg, %.neg12
  br label %Abc_Clock.exit

Abc_Clock.exit:                                   ; preds = %2, %7
  %.0.i.neg = phi i64 [ %.neg13, %7 ], [ 1, %2 ]
  call void @llvm.lifetime.end.p0(i64 16, ptr nonnull %4) #10
  call void @Ssw_ManSweepTransferDyn(ptr noundef %0)
  %11 = getelementptr inbounds nuw i8, ptr %0, i64 200
  %12 = load ptr, ptr %11, align 8, !tbaa !81
  call void @Ssw_SmlSimulateOne(ptr noundef %12) #10
  %13 = getelementptr inbounds nuw i8, ptr %0, i64 40
  %14 = load ptr, ptr %13, align 8, !tbaa !91
  %15 = call i32 @Ssw_ClassesRefineConst1(ptr noundef %14, i32 noundef 1) #10
  %16 = load ptr, ptr %13, align 8, !tbaa !91
  %17 = call i32 @Ssw_ClassesRefine(ptr noundef %16, i32 noundef 1) #10
  %18 = getelementptr inbounds nuw i8, ptr %0, i64 72
  %19 = load ptr, ptr %18, align 8, !tbaa !82
  %20 = getelementptr inbounds nuw i8, ptr %19, i64 4
  %21 = load i32, ptr %20, align 4, !tbaa !41
  %22 = icmp sgt i32 %21, 0
  br i1 %22, label %.lr.ph.i, label %Vec_PtrCleanSimInfo.exit

.lr.ph.i:                                         ; preds = %Abc_Clock.exit
  %23 = getelementptr i8, ptr %19, i64 8
  br label %24

24:                                               ; preds = %24, %.lr.ph.i
  %indvars.iv.i = phi i64 [ 0, %.lr.ph.i ], [ %indvars.iv.next.i, %24 ]
  %.val.i = load ptr, ptr %23, align 8, !tbaa !31
  %25 = getelementptr inbounds nuw ptr, ptr %.val.i, i64 %indvars.iv.i
  %26 = load ptr, ptr %25, align 8, !tbaa !33
  store i32 0, ptr %26, align 1
  %indvars.iv.next.i = add nuw nsw i64 %indvars.iv.i, 1
  %27 = load i32, ptr %20, align 4, !tbaa !41
  %28 = sext i32 %27 to i64
  %29 = icmp slt i64 %indvars.iv.next.i, %28
  br i1 %29, label %24, label %Vec_PtrCleanSimInfo.exit, !llvm.loop !92

Vec_PtrCleanSimInfo.exit:                         ; preds = %24, %Abc_Clock.exit
  %30 = getelementptr inbounds nuw i8, ptr %0, i64 80
  store i32 0, ptr %30, align 8, !tbaa !93
  %31 = getelementptr inbounds nuw i8, ptr %0, i64 84
  %32 = load i32, ptr %31, align 4, !tbaa !94
  %33 = add nsw i32 %32, 1
  store i32 %33, ptr %31, align 4, !tbaa !94
  call void @llvm.lifetime.start.p0(i64 16, ptr nonnull %3) #10
  %34 = call i32 @clock_gettime(i32 noundef 1, ptr noundef nonnull %3) #10
  %35 = icmp slt i32 %34, 0
  br i1 %35, label %Abc_Clock.exit11, label %36

36:                                               ; preds = %Vec_PtrCleanSimInfo.exit
  %37 = load i64, ptr %3, align 8, !tbaa !88
  %38 = mul nsw i64 %37, 1000000
  %39 = getelementptr inbounds nuw i8, ptr %3, i64 8
  %40 = load i64, ptr %39, align 8, !tbaa !90
  %41 = sdiv i64 %40, 1000
  %42 = add nsw i64 %41, %38
  br label %Abc_Clock.exit11

Abc_Clock.exit11:                                 ; preds = %Vec_PtrCleanSimInfo.exit, %36
  %.0.i10 = phi i64 [ %42, %36 ], [ -1, %Vec_PtrCleanSimInfo.exit ]
  call void @llvm.lifetime.end.p0(i64 16, ptr nonnull %3) #10
  %43 = add i64 %.0.i10, %.0.i.neg
  %44 = getelementptr inbounds nuw i8, ptr %0, i64 368
  %45 = load i64, ptr %44, align 8, !tbaa !95
  %46 = add nsw i64 %43, %45
  store i64 %46, ptr %44, align 8, !tbaa !95
  %47 = icmp sgt i32 %15, 0
  %48 = icmp sgt i32 %17, 0
  %49 = select i1 %47, i1 true, i1 %48
  %50 = zext i1 %49 to i32
  ret i32 %50
}